; Function Attrs: nounwind uwtable
define internal i32 @HIDAPI_JoystickGetDeviceInstanceID(i32 noundef %0) #0 {
  tail call void @SDL_AssertJoysticksLocked() #9
  %.024.i = load ptr, ptr @SDL_HIDAPI_devices, align 8
  %.not25.i = icmp eq ptr %.024.i, null
  br i1 %.not25.i, label %HIDAPI_GetDeviceByIndex.exit, label %.lr.ph.i

.lr.ph.i:                                         ; preds = %1, %23
  %.027.i = phi ptr [ %.0.i, %23 ], [ %.024.i, %1 ]
  %.01526.i = phi i32 [ %.1.i, %23 ], [ %0, %1 ]
  %2 = getelementptr inbounds nuw i8, ptr %.027.i, i64 160
  %3 = load ptr, ptr %2, align 8
  %.not18.i = icmp eq ptr %3, null
  br i1 %.not18.i, label %4, label %23

4:                                                ; preds = %.lr.ph.i
  %5 = getelementptr inbounds nuw i8, ptr %.027.i, i64 154
  %6 = load i8, ptr %5, align 2, !range !6, !noundef !7
  %7 = trunc nuw i8 %6 to i1
  br i1 %7, label %23, label %8

8:                                                ; preds = %4
  %9 = getelementptr inbounds nuw i8, ptr %.027.i, i64 104
  %10 = load ptr, ptr %9, align 8
  %.not19.i = icmp eq ptr %10, null
  br i1 %.not19.i, label %23, label %11

11:                                               ; preds = %8
  %12 = getelementptr inbounds nuw i8, ptr %.027.i, i64 140
  %13 = load i32, ptr %12, align 4
  %14 = icmp slt i32 %.01526.i, %13
  br i1 %14, label %15, label %21

15:                                               ; preds = %11
  %16 = getelementptr inbounds nuw i8, ptr %.027.i, i64 144
  %17 = load ptr, ptr %16, align 8
  %18 = sext i32 %.01526.i to i64
  %19 = getelementptr inbounds i32, ptr %17, i64 %18
  %20 = load i32, ptr %19, align 4
  br label %HIDAPI_GetDeviceByIndex.exit

21:                                               ; preds = %11
  %22 = sub nsw i32 %.01526.i, %13
  br label %23

23:                                               ; preds = %21, %8, %4, %.lr.ph.i
  %.1.i = phi i32 [ %.01526.i, %.lr.ph.i ], [ %.01526.i, %4 ], [ %22, %21 ], [ %.01526.i, %8 ]
  %24 = getelementptr inbounds nuw i8, ptr %.027.i, i64 184
  %.0.i = load ptr, ptr %24, align 8
  %.not.i = icmp eq ptr %.0.i, null
  br i1 %.not.i, label %HIDAPI_GetDeviceByIndex.exit, label %.lr.ph.i, !llvm.loop !37

HIDAPI_GetDeviceByIndex.exit:                     ; preds = %23, %1, %15
  %.0 = phi i32 [ 0, %1 ], [ %20, %15 ], [ 0, %23 ]
  ret i32 %.0
}